target datalayout = "e-m:e-p270:32:32-p271:32:32-p272:64:64-i64:64-i128:128-f80:128-n8:16:32:64-S128"
target triple = "x86_64-pc-linux-gnu"

%union.TValue = type { i64 }

@.str.2 = private unnamed_addr constant [1 x i8] zeroinitializer, align 1

; Function Attrs: nounwind uwtable
define dso_local void @luaL_where(ptr noundef %0, i32 noundef %1) #0 {
  %3 = alloca ptr, align 8
  %4 = alloca i32, align 4
  %5 = alloca i32, align 4
  %6 = alloca ptr, align 8
  store ptr %0, ptr %3, align 8, !tbaa !18
  store i32 %1, ptr %4, align 4, !tbaa !4
  call void @llvm.lifetime.start.p0(i64 4, ptr %5) #15
  call void @llvm.lifetime.start.p0(i64 8, ptr %6) #15
  %7 = load ptr, ptr %3, align 8, !tbaa !18
  %8 = load i32, ptr %4, align 4, !tbaa !4
  %9 = call ptr @lj_debug_frame(ptr noundef %7, i32 noundef %8, ptr noundef %5)
  store ptr %9, ptr %6, align 8, !tbaa !25
  %10 = load ptr, ptr %3, align 8, !tbaa !18
  %11 = load ptr, ptr %6, align 8, !tbaa !25
  %12 = load i32, ptr %5, align 4, !tbaa !4
  %13 = icmp ne i32 %12, 0
  br i1 %13, label %14, label %19

14:                                               ; preds = %2
  %15 = load ptr, ptr %6, align 8, !tbaa !25
  %16 = load i32, ptr %5, align 4, !tbaa !4
  %17 = sext i32 %16 to i64
  %18 = getelementptr inbounds %union.TValue, ptr %15, i64 %17
  br label %20

19:                                               ; preds = %2
  br label %20

20:                                               ; preds = %19, %14
  %21 = phi ptr [ %18, %14 ], [ null, %19 ]
  call void @lj_debug_addloc(ptr noundef %10, ptr noundef @.str.2, ptr noundef %11, ptr noundef %21)
  call void @llvm.lifetime.end.p0(i64 8, ptr %6) #15
  call void @llvm.lifetime.end.p0(i64 4, ptr %5) #15
  ret void
}