; Function Attrs: nounwind uwtable
define dso_local void @luaL_where(ptr noundef %0, i32 noundef %1) local_unnamed_addr #0 {
  %3 = alloca i32, align 4
  call void @llvm.lifetime.start.p0(i64 4, ptr nonnull %3) #15
  %4 = call ptr @lj_debug_frame(ptr noundef %0, i32 noundef %1, ptr noundef nonnull %3) #15
  %5 = load i32, ptr %3, align 4, !tbaa !17
  %.not = icmp eq i32 %5, 0
  %6 = sext i32 %5 to i64
  %7 = getelementptr inbounds %union.TValue, ptr %4, i64 %6
  %8 = select i1 %.not, ptr null, ptr %7
  call void @lj_debug_addloc(ptr noundef %0, ptr noundef nonnull @.str.2, ptr noundef %4, ptr noundef %8) #15
  call void @llvm.lifetime.end.p0(i64 4, ptr nonnull %3) #15
  ret void
}